target datalayout = "e-m:e-p270:32:32-p271:32:32-p272:64:64-i64:64-i128:128-f80:128-n8:16:32:64-S128"
target triple = "x86_64-pc-linux-gnu"

%"class.std::__1::strstreambuf" = type { %"class.std::__1::basic_streambuf", i32, i64, ptr, ptr }
%"class.std::__1::basic_streambuf" = type { ptr, %"class.std::__1::locale", ptr, ptr, ptr, ptr, ptr, ptr }
%"class.std::__1::locale" = type { ptr }

@_ZTVNSt3__115basic_streambufIcNS_11char_traitsIcEEEE = external unnamed_addr constant { [16 x ptr] }, align 8

; Function Attrs: inlinehint mustprogress nounwind uwtable
define available_externally void @_ZNSt3__115basic_streambufIcNS_11char_traitsIcEEE4setpEPcS4_(ptr noundef nonnull align 8 dereferenceable(64) %0, ptr noundef %1, ptr noundef %2) #3 align 2 {
  %4 = alloca ptr, align 8
  %5 = alloca ptr, align 8
  %6 = alloca ptr, align 8
  store ptr %0, ptr %4, align 8, !tbaa !23
  store ptr %1, ptr %5, align 8, !tbaa !32
  store ptr %2, ptr %6, align 8, !tbaa !32
  %7 = load ptr, ptr %4, align 8
  %8 = load ptr, ptr %5, align 8, !tbaa !32
  %9 = getelementptr inbounds nuw %"class.std::__1::basic_streambuf", ptr %7, i32 0, i32 6
  store ptr %8, ptr %9, align 8, !tbaa !29
  %10 = getelementptr inbounds nuw %"class.std::__1::basic_streambuf", ptr %7, i32 0, i32 5
  store ptr %8, ptr %10, align 8, !tbaa !28
  %11 = load ptr, ptr %6, align 8, !tbaa !32
  %12 = getelementptr inbounds nuw %"class.std::__1::basic_streambuf", ptr %7, i32 0, i32 7
  store ptr %11, ptr %12, align 8, !tbaa !30
  ret void
}

; Function Attrs: inlinehint mustprogress nounwind uwtable
define available_externally void @_ZNSt3__115basic_streambufIcNS_11char_traitsIcEEE4setgEPcS4_S4_(ptr noundef nonnull align 8 dereferenceable(64) %0, ptr noundef %1, ptr noundef %2, ptr noundef %3) #3 align 2 {
  %5 = alloca ptr, align 8
  %6 = alloca ptr, align 8
  %7 = alloca ptr, align 8
  %8 = alloca ptr, align 8
  store ptr %0, ptr %5, align 8, !tbaa !23
  store ptr %1, ptr %6, align 8, !tbaa !32
  store ptr %2, ptr %7, align 8, !tbaa !32
  store ptr %3, ptr %8, align 8, !tbaa !32
  %9 = load ptr, ptr %5, align 8
  %10 = load ptr, ptr %6, align 8, !tbaa !32
  %11 = getelementptr inbounds nuw %"class.std::__1::basic_streambuf", ptr %9, i32 0, i32 2
  store ptr %10, ptr %11, align 8, !tbaa !25
  %12 = load ptr, ptr %7, align 8, !tbaa !32
  %13 = getelementptr inbounds nuw %"class.std::__1::basic_streambuf", ptr %9, i32 0, i32 3
  store ptr %12, ptr %13, align 8, !tbaa !26
  %14 = load ptr, ptr %8, align 8, !tbaa !32
  %15 = getelementptr inbounds nuw %"class.std::__1::basic_streambuf", ptr %9, i32 0, i32 4
  store ptr %14, ptr %15, align 8, !tbaa !27
  ret void
}

; Function Attrs: mustprogress nounwind uwtable
define available_externally void @_ZNSt3__115basic_streambufIcNS_11char_traitsIcEEED2Ev(ptr noundef nonnull align 8 dereferenceable(64) %0) unnamed_addr #1 align 2 {
  %2 = alloca ptr, align 8
  store ptr %0, ptr %2, align 8, !tbaa !23
  %3 = load ptr, ptr %2, align 8
  store ptr getelementptr inbounds inrange(-16, 112) ({ [16 x ptr] }, ptr @_ZTVNSt3__115basic_streambufIcNS_11char_traitsIcEEEE, i32 0, i32 0, i32 2), ptr %3, align 8, !tbaa !11
  %4 = getelementptr inbounds nuw %"class.std::__1::basic_streambuf", ptr %3, i32 0, i32 1
  call void @_ZNSt3__16localeD1Ev(ptr noundef nonnull align 8 dereferenceable(8) %4) #14
  ret void
}

; Function Attrs: mustprogress uwtable
define dso_local void @_ZNSt3__112strstreambuf6__initEPclS1_(ptr noundef nonnull align 8 dereferenceable(96) %0, ptr noundef %1, i64 noundef %2, ptr noundef %3) #0 align 2 {
  %5 = alloca ptr, align 8
  %6 = alloca ptr, align 8
  %7 = alloca i64, align 8
  %8 = alloca ptr, align 8
  store ptr %0, ptr %5, align 8, !tbaa !4
  store ptr %1, ptr %6, align 8, !tbaa !32
  store i64 %2, ptr %7, align 8, !tbaa !9
  store ptr %3, ptr %8, align 8, !tbaa !32
  %9 = load ptr, ptr %5, align 8
  %10 = load i64, ptr %7, align 8, !tbaa !9
  %11 = icmp eq i64 %10, 0
  br i1 %11, label %12, label %15

12:                                               ; preds = %4
  %13 = load ptr, ptr %6, align 8, !tbaa !32
  %14 = call i64 @strlen(ptr noundef %13) #15
  store i64 %14, ptr %7, align 8, !tbaa !9
  br label %20

15:                                               ; preds = %4
  %16 = load i64, ptr %7, align 8, !tbaa !9
  %17 = icmp slt i64 %16, 0
  br i1 %17, label %18, label %19

18:                                               ; preds = %15
  store i64 2147483647, ptr %7, align 8, !tbaa !9
  br label %19

19:                                               ; preds = %18, %15
  br label %20

20:                                               ; preds = %19, %12
  %21 = load ptr, ptr %8, align 8, !tbaa !32
  %22 = icmp eq ptr %21, null
  br i1 %22, label %23, label %29

23:                                               ; preds = %20
  %24 = load ptr, ptr %6, align 8, !tbaa !32
  %25 = load ptr, ptr %6, align 8, !tbaa !32
  %26 = load ptr, ptr %6, align 8, !tbaa !32
  %27 = load i64, ptr %7, align 8, !tbaa !9
  %28 = getelementptr inbounds i8, ptr %26, i64 %27
  call void @_ZNSt3__115basic_streambufIcNS_11char_traitsIcEEE4setgEPcS4_S4_(ptr noundef nonnull align 8 dereferenceable(64) %9, ptr noundef %24, ptr noundef %25, ptr noundef %28)
  br label %37

29:                                               ; preds = %20
  %30 = load ptr, ptr %6, align 8, !tbaa !32
  %31 = load ptr, ptr %6, align 8, !tbaa !32
  %32 = load ptr, ptr %8, align 8, !tbaa !32
  call void @_ZNSt3__115basic_streambufIcNS_11char_traitsIcEEE4setgEPcS4_S4_(ptr noundef nonnull align 8 dereferenceable(64) %9, ptr noundef %30, ptr noundef %31, ptr noundef %32)
  %33 = load ptr, ptr %8, align 8, !tbaa !32
  %34 = load ptr, ptr %8, align 8, !tbaa !32
  %35 = load i64, ptr %7, align 8, !tbaa !9
  %36 = getelementptr inbounds i8, ptr %34, i64 %35
  call void @_ZNSt3__115basic_streambufIcNS_11char_traitsIcEEE4setpEPcS4_(ptr noundef nonnull align 8 dereferenceable(64) %9, ptr noundef %33, ptr noundef %36)
  br label %37

37:                                               ; preds = %29, %23
  ret void
}

; Function Attrs: mustprogress nounwind uwtable
define available_externally void @_ZNSt3__115basic_streambufIcNS_11char_traitsIcEEEC2Ev(ptr noundef nonnull align 8 dereferenceable(64) %0) unnamed_addr #1 align 2 {
  %2 = alloca ptr, align 8
  store ptr %0, ptr %2, align 8, !tbaa !23
  %3 = load ptr, ptr %2, align 8
  store ptr getelementptr inbounds inrange(-16, 112) ({ [16 x ptr] }, ptr @_ZTVNSt3__115basic_streambufIcNS_11char_traitsIcEEEE, i32 0, i32 0, i32 2), ptr %3, align 8, !tbaa !11
  %4 = getelementptr inbounds nuw %"class.std::__1::basic_streambuf", ptr %3, i32 0, i32 1
  call void @_ZNSt3__16localeC1Ev(ptr noundef nonnull align 8 dereferenceable(8) %4) #14
  %5 = getelementptr inbounds nuw %"class.std::__1::basic_streambuf", ptr %3, i32 0, i32 2
  store ptr null, ptr %5, align 8, !tbaa !25
  %6 = getelementptr inbounds nuw %"class.std::__1::basic_streambuf", ptr %3, i32 0, i32 3
  store ptr null, ptr %6, align 8, !tbaa !26
  %7 = getelementptr inbounds nuw %"class.std::__1::basic_streambuf", ptr %3, i32 0, i32 4
  store ptr null, ptr %7, align 8, !tbaa !27
  %8 = getelementptr inbounds nuw %"class.std::__1::basic_streambuf", ptr %3, i32 0, i32 5
  store ptr null, ptr %8, align 8, !tbaa !28
  %9 = getelementptr inbounds nuw %"class.std::__1::basic_streambuf", ptr %3, i32 0, i32 6
  store ptr null, ptr %9, align 8, !tbaa !29
  %10 = getelementptr inbounds nuw %"class.std::__1::basic_streambuf", ptr %3, i32 0, i32 7
  store ptr null, ptr %10, align 8, !tbaa !30
  ret void
}

; Function Attrs: mustprogress uwtable
define dso_local void @_ZNSt3__112strstreambufC2EPalS1_(ptr noundef nonnull align 8 dereferenceable(96) %0, ptr noundef %1, i64 noundef %2, ptr noundef %3) unnamed_addr #0 align 2 personality ptr @__gxx_personality_v0 {
  %5 = alloca ptr, align 8
  %6 = alloca ptr, align 8
  %7 = alloca i64, align 8
  %8 = alloca ptr, align 8
  %9 = alloca ptr, align 8
  %10 = alloca i32, align 4
  store ptr %0, ptr %5, align 8, !tbaa !4
  store ptr %1, ptr %6, align 8, !tbaa !32
  store i64 %2, ptr %7, align 8, !tbaa !9
  store ptr %3, ptr %8, align 8, !tbaa !32
  %11 = load ptr, ptr %5, align 8
  call void @_ZNSt3__115basic_streambufIcNS_11char_traitsIcEEEC2Ev(ptr noundef nonnull align 8 dereferenceable(64) %11)
  store ptr getelementptr inbounds inrange(-16, 112) ({ [16 x ptr] }, ptr @_ZTVNSt3__112strstreambufE, i32 0, i32 0, i32 2), ptr %11, align 8, !tbaa !11
  %12 = getelementptr inbounds nuw %"class.std::__1::strstreambuf", ptr %11, i32 0, i32 1
  store i32 0, ptr %12, align 8, !tbaa !13
  %13 = getelementptr inbounds nuw %"class.std::__1::strstreambuf", ptr %11, i32 0, i32 2
  store i64 4096, ptr %13, align 8, !tbaa !20
  %14 = getelementptr inbounds nuw %"class.std::__1::strstreambuf", ptr %11, i32 0, i32 3
  store ptr null, ptr %14, align 8, !tbaa !21
  %15 = getelementptr inbounds nuw %"class.std::__1::strstreambuf", ptr %11, i32 0, i32 4
  store ptr null, ptr %15, align 8, !tbaa !22
  %16 = load ptr, ptr %6, align 8, !tbaa !32
  %17 = load i64, ptr %7, align 8, !tbaa !9
  %18 = load ptr, ptr %8, align 8, !tbaa !32
  invoke void @_ZNSt3__112strstreambuf6__initEPclS1_(ptr noundef nonnull align 8 dereferenceable(96) %11, ptr noundef %16, i64 noundef %17, ptr noundef %18)
          to label %19 unwind label %20

19:                                               ; preds = %4
  ret void

20:                                               ; preds = %4
  %21 = landingpad { ptr, i32 }
          cleanup
  %22 = extractvalue { ptr, i32 } %21, 0
  store ptr %22, ptr %9, align 8
  %23 = extractvalue { ptr, i32 } %21, 1
  store i32 %23, ptr %10, align 4
  call void @_ZNSt3__115basic_streambufIcNS_11char_traitsIcEEED2Ev(ptr noundef nonnull align 8 dereferenceable(64) %11) #14
  br label %24

24:                                               ; preds = %20
  %25 = load ptr, ptr %9, align 8
  %26 = load i32, ptr %10, align 4
  %27 = insertvalue { ptr, i32 } poison, ptr %25, 0
  %28 = insertvalue { ptr, i32 } %27, i32 %26, 1
  resume { ptr, i32 } %28
}