; Function Attrs: mustprogress nounwind uwtable
define dso_local void @_ZNSt3__112strstreambufC2EPalS1_(ptr noundef nonnull align 8 dereferenceable(96) initializes((0, 8)) %0, ptr noundef %1, i64 noundef %2, ptr noundef %3) unnamed_addr #0 align 2 personality ptr @__gxx_personality_v0 {
  store ptr getelementptr inbounds nuw inrange(-16, 112) (i8, ptr @_ZTVNSt3__115basic_streambufIcNS_11char_traitsIcEEEE, i64 16), ptr %0, align 8, !tbaa !4
  %5 = getelementptr inbounds nuw i8, ptr %0, i64 8
  tail call void @_ZNSt3__16localeC1Ev(ptr noundef nonnull align 8 dereferenceable(8) %5) #18
  %6 = getelementptr inbounds nuw i8, ptr %0, i64 16
  tail call void @llvm.memset.p0.i64(ptr noundef nonnull align 8 dereferenceable(48) %6, i8 0, i64 48, i1 false)
  store ptr getelementptr inbounds nuw inrange(-16, 112) (i8, ptr @_ZTVNSt3__112strstreambufE, i64 16), ptr %0, align 8, !tbaa !4
  %7 = getelementptr inbounds nuw i8, ptr %0, i64 64
  store i32 0, ptr %7, align 8, !tbaa !7
  %8 = getelementptr inbounds nuw i8, ptr %0, i64 72
  store i64 4096, ptr %8, align 8, !tbaa !17
  %9 = getelementptr inbounds nuw i8, ptr %0, i64 80
  %10 = icmp eq i64 %2, 0
  tail call void @llvm.memset.p0.i64(ptr noundef nonnull align 8 dereferenceable(16) %9, i8 0, i64 16, i1 false)
  br i1 %10, label %11, label %13

11:                                               ; preds = %4
  %12 = tail call i64 @strlen(ptr noundef nonnull dereferenceable(1) %1) #19
  br label %15

13:                                               ; preds = %4
  %14 = icmp slt i64 %2, 0
  %spec.store.select.i = select i1 %14, i64 2147483647, i64 %2
  br label %15

15:                                               ; preds = %13, %11
  %.0.i = phi i64 [ %12, %11 ], [ %spec.store.select.i, %13 ]
  %16 = icmp eq ptr %3, null
  br i1 %16, label %17, label %19

17:                                               ; preds = %15
  %18 = getelementptr inbounds i8, ptr %1, i64 %.0.i
  br label %24

19:                                               ; preds = %15
  %20 = getelementptr inbounds i8, ptr %3, i64 %.0.i
  %21 = getelementptr inbounds nuw i8, ptr %0, i64 48
  store ptr %3, ptr %21, align 8, !tbaa !20
  %22 = getelementptr inbounds nuw i8, ptr %0, i64 40
  store ptr %3, ptr %22, align 8, !tbaa !21
  %23 = getelementptr inbounds nuw i8, ptr %0, i64 56
  store ptr %20, ptr %23, align 8, !tbaa !22
  br label %24

24:                                               ; preds = %19, %17
  %.sink.i = phi ptr [ %18, %17 ], [ %3, %19 ]
  store ptr %1, ptr %6, align 8, !tbaa !23
  %25 = getelementptr inbounds nuw i8, ptr %0, i64 24
  store ptr %1, ptr %25, align 8, !tbaa !24
  %26 = getelementptr inbounds nuw i8, ptr %0, i64 32
  store ptr %.sink.i, ptr %26, align 8, !tbaa !25
  ret void
}